target datalayout = "e-m:e-p270:32:32-p271:32:32-p272:64:64-i64:64-i128:128-f80:128-n8:16:32:64-S128"
target triple = "x86_64-pc-linux-gnu"

%"struct.clang::extractapi::SymbolReference" = type { %"class.llvm::StringRef", %"class.llvm::StringRef", %"class.llvm::StringRef", ptr }
%"class.llvm::StringRef" = type { ptr, i64 }
%"struct.clang::extractapi::APIRecord" = type { ptr, %"class.llvm::StringRef", %"class.llvm::StringRef", %"struct.clang::extractapi::SymbolReference", %"class.clang::PresumedLoc", %"struct.clang::AvailabilityInfo", %"class.clang::LinkageInfo", %"class.std::vector", %"class.clang::extractapi::DeclarationFragments", %"class.clang::extractapi::DeclarationFragments", i8, %"class.clang::extractapi::AccessControl", i32, i32, ptr }
%"class.clang::PresumedLoc" = type { ptr, %"class.clang::FileID", i32, i32, %"class.clang::SourceLocation" }
%"class.clang::FileID" = type { i32 }
%"class.clang::SourceLocation" = type { i32 }
%"struct.clang::AvailabilityInfo" = type <{ %"class.llvm::SmallString", %"class.llvm::VersionTuple", %"class.llvm::VersionTuple", %"class.llvm::VersionTuple", i8, i8, i8, [5 x i8] }>
%"class.llvm::SmallString" = type { %"class.llvm::SmallVector" }
%"class.llvm::SmallVector" = type { %"class.llvm::SmallVectorImpl", %"struct.llvm::SmallVectorStorage" }
%"class.llvm::SmallVectorImpl" = type { %"class.llvm::SmallVectorTemplateBase" }
%"class.llvm::SmallVectorTemplateBase" = type { %"class.llvm::SmallVectorTemplateCommon" }
%"class.llvm::SmallVectorTemplateCommon" = type { %"class.llvm::SmallVectorBase" }
%"class.llvm::SmallVectorBase" = type { ptr, i64, i64 }
%"struct.llvm::SmallVectorStorage" = type { [32 x i8] }
%"class.llvm::VersionTuple" = type { i64, i64 }
%"class.clang::LinkageInfo" = type { i8 }
%"class.std::vector" = type { %"struct.std::_Vector_base" }
%"struct.std::_Vector_base" = type { %"struct.std::_Vector_base<clang::RawComment::CommentLine, std::allocator<clang::RawComment::CommentLine>>::_Vector_impl" }
%"struct.std::_Vector_base<clang::RawComment::CommentLine, std::allocator<clang::RawComment::CommentLine>>::_Vector_impl" = type { %"struct.std::_Vector_base<clang::RawComment::CommentLine, std::allocator<clang::RawComment::CommentLine>>::_Vector_impl_data" }
%"struct.std::_Vector_base<clang::RawComment::CommentLine, std::allocator<clang::RawComment::CommentLine>>::_Vector_impl_data" = type { ptr, ptr, ptr }
%"class.clang::extractapi::DeclarationFragments" = type { %"class.std::vector.0" }
%"class.std::vector.0" = type { %"struct.std::_Vector_base.1" }
%"struct.std::_Vector_base.1" = type { %"struct.std::_Vector_base<clang::extractapi::DeclarationFragments::Fragment, std::allocator<clang::extractapi::DeclarationFragments::Fragment>>::_Vector_impl" }
%"struct.std::_Vector_base<clang::extractapi::DeclarationFragments::Fragment, std::allocator<clang::extractapi::DeclarationFragments::Fragment>>::_Vector_impl" = type { %"struct.std::_Vector_base<clang::extractapi::DeclarationFragments::Fragment, std::allocator<clang::extractapi::DeclarationFragments::Fragment>>::_Vector_impl_data" }
%"struct.std::_Vector_base<clang::extractapi::DeclarationFragments::Fragment, std::allocator<clang::extractapi::DeclarationFragments::Fragment>>::_Vector_impl_data" = type { ptr, ptr, ptr }
%"class.clang::extractapi::AccessControl" = type { %"class.std::__cxx11::basic_string" }
%"class.std::__cxx11::basic_string" = type { %"struct.std::__cxx11::basic_string<char>::_Alloc_hider", i64, %union.anon }
%"struct.std::__cxx11::basic_string<char>::_Alloc_hider" = type { ptr }
%union.anon = type { i64, [8 x i8] }

; Function Attrs: mustprogress nounwind uwtable
define linkonce_odr hidden noundef i32 @_ZNK5clang10extractapi9APIRecord7getKindEv(ptr noundef nonnull align 8 dereferenceable(368) %0) #0 comdat align 2 {
  %2 = alloca ptr, align 8
  store ptr %0, ptr %2, align 8
  %3 = load ptr, ptr %2, align 8
  %4 = getelementptr inbounds nuw %"struct.clang::extractapi::APIRecord", ptr %3, i32 0, i32 13
  %5 = load i32, ptr %4, align 4
  ret i32 %5
}

; Function Attrs: mustprogress nounwind uwtable
define dso_local noundef ptr @_ZN5clang10extractapi9APIRecord19castToRecordContextEPKS1_(ptr noundef %0) #0 align 2 {
  %2 = alloca ptr, align 8
  %3 = alloca ptr, align 8
  store ptr %0, ptr %3, align 8
  %4 = load ptr, ptr %3, align 8
  %5 = icmp ne ptr %4, null
  br i1 %5, label %7, label %6

6:                                                ; preds = %1
  store ptr null, ptr %2, align 8
  br label %151

7:                                                ; preds = %1
  %8 = load ptr, ptr %3, align 8
  %9 = call noundef i32 @_ZNK5clang10extractapi9APIRecord7getKindEv(ptr noundef nonnull align 8 dereferenceable(368) %8)
  switch i32 %9, label %150 [
    i32 2, label %10
    i32 3, label %17
    i32 4, label %24
    i32 5, label %31
    i32 7, label %38
    i32 6, label %45
    i32 8, label %52
    i32 9, label %59
    i32 10, label %66
    i32 11, label %73
    i32 12, label %80
    i32 13, label %87
    i32 14, label %94
    i32 15, label %101
    i32 16, label %108
    i32 17, label %115
    i32 18, label %122
    i32 19, label %129
    i32 20, label %136
    i32 21, label %143
  ]

10:                                               ; preds = %7
  %11 = load ptr, ptr %3, align 8
  %12 = icmp eq ptr %11, null
  br i1 %12, label %15, label %13

13:                                               ; preds = %10
  %14 = getelementptr inbounds i8, ptr %11, i64 368
  br label %15

15:                                               ; preds = %13, %10
  %16 = phi ptr [ %14, %13 ], [ null, %10 ]
  store ptr %16, ptr %2, align 8
  br label %151

17:                                               ; preds = %7
  %18 = load ptr, ptr %3, align 8
  %19 = icmp eq ptr %18, null
  br i1 %19, label %22, label %20

20:                                               ; preds = %17
  %21 = getelementptr inbounds i8, ptr %18, i64 368
  br label %22

22:                                               ; preds = %20, %17
  %23 = phi ptr [ %21, %20 ], [ null, %17 ]
  store ptr %23, ptr %2, align 8
  br label %151

24:                                               ; preds = %7
  %25 = load ptr, ptr %3, align 8
  %26 = icmp eq ptr %25, null
  br i1 %26, label %29, label %27

27:                                               ; preds = %24
  %28 = getelementptr inbounds i8, ptr %25, i64 368
  br label %29

29:                                               ; preds = %27, %24
  %30 = phi ptr [ %28, %27 ], [ null, %24 ]
  store ptr %30, ptr %2, align 8
  br label %151

31:                                               ; preds = %7
  %32 = load ptr, ptr %3, align 8
  %33 = icmp eq ptr %32, null
  br i1 %33, label %36, label %34

34:                                               ; preds = %31
  %35 = getelementptr inbounds i8, ptr %32, i64 368
  br label %36

36:                                               ; preds = %34, %31
  %37 = phi ptr [ %35, %34 ], [ null, %31 ]
  store ptr %37, ptr %2, align 8
  br label %151

38:                                               ; preds = %7
  %39 = load ptr, ptr %3, align 8
  %40 = icmp eq ptr %39, null
  br i1 %40, label %43, label %41

41:                                               ; preds = %38
  %42 = getelementptr inbounds i8, ptr %39, i64 368
  br label %43

43:                                               ; preds = %41, %38
  %44 = phi ptr [ %42, %41 ], [ null, %38 ]
  store ptr %44, ptr %2, align 8
  br label %151

45:                                               ; preds = %7
  %46 = load ptr, ptr %3, align 8
  %47 = icmp eq ptr %46, null
  br i1 %47, label %50, label %48

48:                                               ; preds = %45
  %49 = getelementptr inbounds i8, ptr %46, i64 368
  br label %50

50:                                               ; preds = %48, %45
  %51 = phi ptr [ %49, %48 ], [ null, %45 ]
  store ptr %51, ptr %2, align 8
  br label %151

52:                                               ; preds = %7
  %53 = load ptr, ptr %3, align 8
  %54 = icmp eq ptr %53, null
  br i1 %54, label %57, label %55

55:                                               ; preds = %52
  %56 = getelementptr inbounds i8, ptr %53, i64 368
  br label %57

57:                                               ; preds = %55, %52
  %58 = phi ptr [ %56, %55 ], [ null, %52 ]
  store ptr %58, ptr %2, align 8
  br label %151

59:                                               ; preds = %7
  %60 = load ptr, ptr %3, align 8
  %61 = icmp eq ptr %60, null
  br i1 %61, label %64, label %62

62:                                               ; preds = %59
  %63 = getelementptr inbounds i8, ptr %60, i64 368
  br label %64

64:                                               ; preds = %62, %59
  %65 = phi ptr [ %63, %62 ], [ null, %59 ]
  store ptr %65, ptr %2, align 8
  br label %151

66:                                               ; preds = %7
  %67 = load ptr, ptr %3, align 8
  %68 = icmp eq ptr %67, null
  br i1 %68, label %71, label %69

69:                                               ; preds = %66
  %70 = getelementptr inbounds i8, ptr %67, i64 368
  br label %71

71:                                               ; preds = %69, %66
  %72 = phi ptr [ %70, %69 ], [ null, %66 ]
  store ptr %72, ptr %2, align 8
  br label %151

73:                                               ; preds = %7
  %74 = load ptr, ptr %3, align 8
  %75 = icmp eq ptr %74, null
  br i1 %75, label %78, label %76

76:                                               ; preds = %73
  %77 = getelementptr inbounds i8, ptr %74, i64 368
  br label %78

78:                                               ; preds = %76, %73
  %79 = phi ptr [ %77, %76 ], [ null, %73 ]
  store ptr %79, ptr %2, align 8
  br label %151

80:                                               ; preds = %7
  %81 = load ptr, ptr %3, align 8
  %82 = icmp eq ptr %81, null
  br i1 %82, label %85, label %83

83:                                               ; preds = %80
  %84 = getelementptr inbounds i8, ptr %81, i64 368
  br label %85

85:                                               ; preds = %83, %80
  %86 = phi ptr [ %84, %83 ], [ null, %80 ]
  store ptr %86, ptr %2, align 8
  br label %151

87:                                               ; preds = %7
  %88 = load ptr, ptr %3, align 8
  %89 = icmp eq ptr %88, null
  br i1 %89, label %92, label %90

90:                                               ; preds = %87
  %91 = getelementptr inbounds i8, ptr %88, i64 368
  br label %92

92:                                               ; preds = %90, %87
  %93 = phi ptr [ %91, %90 ], [ null, %87 ]
  store ptr %93, ptr %2, align 8
  br label %151

94:                                               ; preds = %7
  %95 = load ptr, ptr %3, align 8
  %96 = icmp eq ptr %95, null
  br i1 %96, label %99, label %97

97:                                               ; preds = %94
  %98 = getelementptr inbounds i8, ptr %95, i64 368
  br label %99

99:                                               ; preds = %97, %94
  %100 = phi ptr [ %98, %97 ], [ null, %94 ]
  store ptr %100, ptr %2, align 8
  br label %151

101:                                              ; preds = %7
  %102 = load ptr, ptr %3, align 8
  %103 = icmp eq ptr %102, null
  br i1 %103, label %106, label %104

104:                                              ; preds = %101
  %105 = getelementptr inbounds i8, ptr %102, i64 368
  br label %106

106:                                              ; preds = %104, %101
  %107 = phi ptr [ %105, %104 ], [ null, %101 ]
  store ptr %107, ptr %2, align 8
  br label %151

108:                                              ; preds = %7
  %109 = load ptr, ptr %3, align 8
  %110 = icmp eq ptr %109, null
  br i1 %110, label %113, label %111

111:                                              ; preds = %108
  %112 = getelementptr inbounds i8, ptr %109, i64 368
  br label %113

113:                                              ; preds = %111, %108
  %114 = phi ptr [ %112, %111 ], [ null, %108 ]
  store ptr %114, ptr %2, align 8
  br label %151

115:                                              ; preds = %7
  %116 = load ptr, ptr %3, align 8
  %117 = icmp eq ptr %116, null
  br i1 %117, label %120, label %118

118:                                              ; preds = %115
  %119 = getelementptr inbounds i8, ptr %116, i64 368
  br label %120

120:                                              ; preds = %118, %115
  %121 = phi ptr [ %119, %118 ], [ null, %115 ]
  store ptr %121, ptr %2, align 8
  br label %151

122:                                              ; preds = %7
  %123 = load ptr, ptr %3, align 8
  %124 = icmp eq ptr %123, null
  br i1 %124, label %127, label %125

125:                                              ; preds = %122
  %126 = getelementptr inbounds i8, ptr %123, i64 368
  br label %127

127:                                              ; preds = %125, %122
  %128 = phi ptr [ %126, %125 ], [ null, %122 ]
  store ptr %128, ptr %2, align 8
  br label %151

129:                                              ; preds = %7
  %130 = load ptr, ptr %3, align 8
  %131 = icmp eq ptr %130, null
  br i1 %131, label %134, label %132

132:                                              ; preds = %129
  %133 = getelementptr inbounds i8, ptr %130, i64 368
  br label %134

134:                                              ; preds = %132, %129
  %135 = phi ptr [ %133, %132 ], [ null, %129 ]
  store ptr %135, ptr %2, align 8
  br label %151

136:                                              ; preds = %7
  %137 = load ptr, ptr %3, align 8
  %138 = icmp eq ptr %137, null
  br i1 %138, label %141, label %139

139:                                              ; preds = %136
  %140 = getelementptr inbounds i8, ptr %137, i64 368
  br label %141

141:                                              ; preds = %139, %136
  %142 = phi ptr [ %140, %139 ], [ null, %136 ]
  store ptr %142, ptr %2, align 8
  br label %151

143:                                              ; preds = %7
  %144 = load ptr, ptr %3, align 8
  %145 = icmp eq ptr %144, null
  br i1 %145, label %148, label %146

146:                                              ; preds = %143
  %147 = getelementptr inbounds i8, ptr %144, i64 368
  br label %148

148:                                              ; preds = %146, %143
  %149 = phi ptr [ %147, %146 ], [ null, %143 ]
  store ptr %149, ptr %2, align 8
  br label %151

150:                                              ; preds = %7
  store ptr null, ptr %2, align 8
  br label %151

151:                                              ; preds = %150, %148, %141, %134, %127, %120, %113, %106, %99, %92, %85, %78, %71, %64, %57, %50, %43, %36, %29, %22, %15, %6
  %152 = load ptr, ptr %2, align 8
  ret ptr %152
}