; Function Attrs: mustprogress nofree norecurse nosync nounwind willreturn memory(argmem: read) uwtable
define dso_local noundef ptr @_ZN5clang10extractapi9APIRecord19castToRecordContextEPKS1_(ptr noundef readonly %0) local_unnamed_addr #2 align 2 {
  %.not = icmp eq ptr %0, null
  br i1 %.not, label %45, label %2

2:                                                ; preds = %1
  %3 = getelementptr inbounds nuw i8, ptr %0, i64 356
  %4 = load i32, ptr %3, align 4
  switch i32 %4, label %45 [
    i32 2, label %5
    i32 3, label %7
    i32 4, label %9
    i32 5, label %11
    i32 7, label %13
    i32 6, label %15
    i32 8, label %17
    i32 9, label %19
    i32 10, label %21
    i32 11, label %23
    i32 12, label %25
    i32 13, label %27
    i32 14, label %29
    i32 15, label %31
    i32 16, label %33
    i32 17, label %35
    i32 18, label %37
    i32 19, label %39
    i32 20, label %41
    i32 21, label %43
  ]

5:                                                ; preds = %2
  %6 = getelementptr inbounds i8, ptr %0, i64 368
  br label %45

7:                                                ; preds = %2
  %8 = getelementptr inbounds i8, ptr %0, i64 368
  br label %45

9:                                                ; preds = %2
  %10 = getelementptr inbounds i8, ptr %0, i64 368
  br label %45

11:                                               ; preds = %2
  %12 = getelementptr inbounds i8, ptr %0, i64 368
  br label %45

13:                                               ; preds = %2
  %14 = getelementptr inbounds i8, ptr %0, i64 368
  br label %45

15:                                               ; preds = %2
  %16 = getelementptr inbounds i8, ptr %0, i64 368
  br label %45

17:                                               ; preds = %2
  %18 = getelementptr inbounds i8, ptr %0, i64 368
  br label %45

19:                                               ; preds = %2
  %20 = getelementptr inbounds i8, ptr %0, i64 368
  br label %45

21:                                               ; preds = %2
  %22 = getelementptr inbounds i8, ptr %0, i64 368
  br label %45

23:                                               ; preds = %2
  %24 = getelementptr inbounds i8, ptr %0, i64 368
  br label %45

25:                                               ; preds = %2
  %26 = getelementptr inbounds i8, ptr %0, i64 368
  br label %45

27:                                               ; preds = %2
  %28 = getelementptr inbounds i8, ptr %0, i64 368
  br label %45

29:                                               ; preds = %2
  %30 = getelementptr inbounds i8, ptr %0, i64 368
  br label %45

31:                                               ; preds = %2
  %32 = getelementptr inbounds i8, ptr %0, i64 368
  br label %45

33:                                               ; preds = %2
  %34 = getelementptr inbounds i8, ptr %0, i64 368
  br label %45

35:                                               ; preds = %2
  %36 = getelementptr inbounds i8, ptr %0, i64 368
  br label %45

37:                                               ; preds = %2
  %38 = getelementptr inbounds i8, ptr %0, i64 368
  br label %45

39:                                               ; preds = %2
  %40 = getelementptr inbounds i8, ptr %0, i64 368
  br label %45

41:                                               ; preds = %2
  %42 = getelementptr inbounds i8, ptr %0, i64 368
  br label %45

43:                                               ; preds = %2
  %44 = getelementptr inbounds i8, ptr %0, i64 368
  br label %45

45:                                               ; preds = %2, %1, %43, %41, %39, %37, %35, %33, %31, %29, %27, %25, %23, %21, %19, %17, %15, %13, %11, %9, %7, %5
  %.0 = phi ptr [ %44, %43 ], [ %42, %41 ], [ %40, %39 ], [ %38, %37 ], [ %36, %35 ], [ %34, %33 ], [ %32, %31 ], [ %30, %29 ], [ %28, %27 ], [ %26, %25 ], [ %24, %23 ], [ %22, %21 ], [ %20, %19 ], [ %18, %17 ], [ %16, %15 ], [ %14, %13 ], [ %12, %11 ], [ %10, %9 ], [ %8, %7 ], [ %6, %5 ], [ null, %1 ], [ null, %2 ]
  ret ptr %.0
}